target datalayout = "e-m:e-p270:32:32-p271:32:32-p272:64:64-i64:64-i128:128-f80:128-n8:16:32:64-S128"
target triple = "x86_64-pc-linux-gnu"

%struct.AVFilterContext = type { ptr, ptr, ptr, ptr, ptr, i32, ptr, ptr, i32, ptr, ptr, i32, i32, ptr, ptr, ptr, ptr, i32, ptr, i32, i32 }
%struct.ESTDIFContext = type { ptr, i32, i32, i32, i32, i32, i32, i32, i32, i32, [4 x i32], [4 x i32], [4 x i32], i32, i32, i32, i32, i32, i32, ptr, ptr, [3 x ptr], [3 x ptr] }
%struct.AVFilterLink = type { ptr, ptr, ptr, ptr, i32, i32, i32, i32, %struct.AVRational, i32, i32, i32, %struct.AVChannelLayout, %struct.AVRational, ptr, i32, %struct.AVFilterFormatsConfig, %struct.AVFilterFormatsConfig }
%struct.AVChannelLayout = type { i32, i32, %union.anon.1, ptr }
%union.anon.1 = type { i64 }
%struct.AVRational = type { i32, i32 }
%struct.AVFilterFormatsConfig = type { ptr, ptr, ptr, ptr, ptr }
%struct.AVFrame = type { [8 x ptr], [8 x i32], ptr, i32, i32, i32, i32, i32, %struct.AVRational, i64, i64, %struct.AVRational, i32, ptr, i32, i32, [8 x ptr], ptr, i32, ptr, i32, i32, i32, i32, i32, i32, i32, i64, ptr, i32, ptr, ptr, i64, i64, i64, i64, ptr, %struct.AVChannelLayout, i64 }
%struct.ThreadData = type { ptr, ptr }

; Function Attrs: nounwind uwtable
define internal i32 @filter(ptr noundef %0, ptr noundef %1, i64 noundef %2, i64 noundef %3) #2 {
  %5 = alloca i32, align 4
  %6 = alloca ptr, align 8
  %7 = alloca ptr, align 8
  %8 = alloca i64, align 8
  %9 = alloca i64, align 8
  %10 = alloca ptr, align 8
  %11 = alloca ptr, align 8
  %12 = alloca ptr, align 8
  %13 = alloca %struct.ThreadData, align 8
  %14 = alloca i32, align 4
  store ptr %0, ptr %6, align 8, !tbaa !4
  store ptr %1, ptr %7, align 8, !tbaa !26
  store i64 %2, ptr %8, align 8, !tbaa !67
  store i64 %3, ptr %9, align 8, !tbaa !67
  call void @llvm.lifetime.start.p0(i64 8, ptr %10) #12
  %15 = load ptr, ptr %6, align 8, !tbaa !4
  %16 = getelementptr inbounds nuw %struct.AVFilterContext, ptr %15, i32 0, i32 9
  %17 = load ptr, ptr %16, align 8, !tbaa !9
  store ptr %17, ptr %10, align 8, !tbaa !22
  call void @llvm.lifetime.start.p0(i64 8, ptr %11) #12
  %18 = load ptr, ptr %6, align 8, !tbaa !4
  %19 = getelementptr inbounds nuw %struct.AVFilterContext, ptr %18, i32 0, i32 7
  %20 = load ptr, ptr %19, align 8, !tbaa !48
  %21 = getelementptr inbounds ptr, ptr %20, i64 0
  %22 = load ptr, ptr %21, align 8, !tbaa !24
  store ptr %22, ptr %11, align 8, !tbaa !24
  call void @llvm.lifetime.start.p0(i64 8, ptr %12) #12
  call void @llvm.lifetime.start.p0(i64 16, ptr %13) #12
  %23 = load ptr, ptr %11, align 8, !tbaa !24
  %24 = load ptr, ptr %11, align 8, !tbaa !24
  %25 = getelementptr inbounds nuw %struct.AVFilterLink, ptr %24, i32 0, i32 6
  %26 = load i32, ptr %25, align 8, !tbaa !54
  %27 = load ptr, ptr %11, align 8, !tbaa !24
  %28 = getelementptr inbounds nuw %struct.AVFilterLink, ptr %27, i32 0, i32 7
  %29 = load i32, ptr %28, align 4, !tbaa !57
  %30 = call ptr @ff_get_video_buffer(ptr noundef %23, i32 noundef %26, i32 noundef %29)
  store ptr %30, ptr %12, align 8, !tbaa !26
  %31 = load ptr, ptr %12, align 8, !tbaa !26
  %32 = icmp ne ptr %31, null
  br i1 %32, label %34, label %33

33:                                               ; preds = %4
  store i32 -12, ptr %5, align 4
  store i32 1, ptr %14, align 4
  br label %92

34:                                               ; preds = %4
  %35 = load ptr, ptr %12, align 8, !tbaa !26
  %36 = load ptr, ptr %7, align 8, !tbaa !26
  %37 = call i32 @av_frame_copy_props(ptr noundef %35, ptr noundef %36)
  %38 = load ptr, ptr %12, align 8, !tbaa !26
  %39 = getelementptr inbounds nuw %struct.AVFrame, ptr %38, i32 0, i32 21
  %40 = load i32, ptr %39, align 4, !tbaa !39
  %41 = and i32 %40, -9
  store i32 %41, ptr %39, align 4, !tbaa !39
  %42 = load i64, ptr %8, align 8, !tbaa !67
  %43 = load ptr, ptr %12, align 8, !tbaa !26
  %44 = getelementptr inbounds nuw %struct.AVFrame, ptr %43, i32 0, i32 9
  store i64 %42, ptr %44, align 8, !tbaa !46
  %45 = load i64, ptr %9, align 8, !tbaa !67
  %46 = load ptr, ptr %12, align 8, !tbaa !26
  %47 = getelementptr inbounds nuw %struct.AVFrame, ptr %46, i32 0, i32 38
  store i64 %45, ptr %47, align 8, !tbaa !47
  %48 = load ptr, ptr %12, align 8, !tbaa !26
  %49 = getelementptr inbounds nuw %struct.ThreadData, ptr %13, i32 0, i32 0
  store ptr %48, ptr %49, align 8, !tbaa !68
  %50 = load ptr, ptr %7, align 8, !tbaa !26
  %51 = getelementptr inbounds nuw %struct.ThreadData, ptr %13, i32 0, i32 1
  store ptr %50, ptr %51, align 8, !tbaa !70
  %52 = load ptr, ptr %6, align 8, !tbaa !4
  %53 = load ptr, ptr %10, align 8, !tbaa !22
  %54 = getelementptr inbounds nuw %struct.ESTDIFContext, ptr %53, i32 0, i32 12
  %55 = getelementptr inbounds [4 x i32], ptr %54, i64 0, i64 1
  %56 = load i32, ptr %55, align 4, !tbaa !49
  %57 = sdiv i32 %56, 2
  %58 = load ptr, ptr %10, align 8, !tbaa !22
  %59 = getelementptr inbounds nuw %struct.ESTDIFContext, ptr %58, i32 0, i32 18
  %60 = load i32, ptr %59, align 8, !tbaa !60
  %61 = icmp sgt i32 %57, %60
  br i1 %61, label %62, label %66

62:                                               ; preds = %34
  %63 = load ptr, ptr %10, align 8, !tbaa !22
  %64 = getelementptr inbounds nuw %struct.ESTDIFContext, ptr %63, i32 0, i32 18
  %65 = load i32, ptr %64, align 8, !tbaa !60
  br label %72

66:                                               ; preds = %34
  %67 = load ptr, ptr %10, align 8, !tbaa !22
  %68 = getelementptr inbounds nuw %struct.ESTDIFContext, ptr %67, i32 0, i32 12
  %69 = getelementptr inbounds [4 x i32], ptr %68, i64 0, i64 1
  %70 = load i32, ptr %69, align 4, !tbaa !49
  %71 = sdiv i32 %70, 2
  br label %72

72:                                               ; preds = %66, %62
  %73 = phi i32 [ %65, %62 ], [ %71, %66 ]
  %74 = call i32 @ff_filter_execute(ptr noundef %52, ptr noundef @deinterlace_slice, ptr noundef %13, ptr noundef null, i32 noundef %73)
  %75 = load ptr, ptr %10, align 8, !tbaa !22
  %76 = getelementptr inbounds nuw %struct.ESTDIFContext, ptr %75, i32 0, i32 1
  %77 = load i32, ptr %76, align 8, !tbaa !50
  %78 = icmp ne i32 %77, 0
  br i1 %78, label %79, label %88

79:                                               ; preds = %72
  %80 = load ptr, ptr %10, align 8, !tbaa !22
  %81 = getelementptr inbounds nuw %struct.ESTDIFContext, ptr %80, i32 0, i32 13
  %82 = load i32, ptr %81, align 4, !tbaa !71
  %83 = icmp ne i32 %82, 0
  %84 = xor i1 %83, true
  %85 = zext i1 %84 to i32
  %86 = load ptr, ptr %10, align 8, !tbaa !22
  %87 = getelementptr inbounds nuw %struct.ESTDIFContext, ptr %86, i32 0, i32 13
  store i32 %85, ptr %87, align 4, !tbaa !71
  br label %88

88:                                               ; preds = %79, %72
  %89 = load ptr, ptr %11, align 8, !tbaa !24
  %90 = load ptr, ptr %12, align 8, !tbaa !26
  %91 = call i32 @ff_filter_frame(ptr noundef %89, ptr noundef %90)
  store i32 %91, ptr %5, align 4
  store i32 1, ptr %14, align 4
  br label %92

92:                                               ; preds = %88, %33
  call void @llvm.lifetime.end.p0(i64 16, ptr %13) #12
  call void @llvm.lifetime.end.p0(i64 8, ptr %12) #12
  call void @llvm.lifetime.end.p0(i64 8, ptr %11) #12
  call void @llvm.lifetime.end.p0(i64 8, ptr %10) #12
  %93 = load i32, ptr %5, align 4
  ret i32 %93
}