; Function Attrs: nounwind uwtable
define internal fastcc i32 @filter(ptr noundef %0, ptr noundef %1, i64 noundef %2, i64 noundef %3) unnamed_addr #2 {
  %5 = alloca %struct.ThreadData, align 8
  %6 = getelementptr inbounds nuw i8, ptr %0, i64 72
  %7 = load ptr, ptr %6, align 8, !tbaa !4
  %8 = getelementptr inbounds nuw i8, ptr %0, i64 56
  %9 = load ptr, ptr %8, align 8, !tbaa !42
  %10 = load ptr, ptr %9, align 8, !tbaa !43
  call void @llvm.lifetime.start.p0(i64 16, ptr nonnull %5) #11
  %11 = getelementptr inbounds nuw i8, ptr %10, i64 40
  %12 = load i32, ptr %11, align 8, !tbaa !47
  %13 = getelementptr inbounds nuw i8, ptr %10, i64 44
  %14 = load i32, ptr %13, align 4, !tbaa !48
  %15 = tail call ptr @ff_get_video_buffer(ptr noundef %10, i32 noundef %12, i32 noundef %14) #11
  %.not = icmp eq ptr %15, null
  br i1 %.not, label %38, label %16

16:                                               ; preds = %4
  %17 = tail call i32 @av_frame_copy_props(ptr noundef nonnull %15, ptr noundef %1) #11
  %18 = getelementptr inbounds nuw i8, ptr %15, i64 276
  %19 = load i32, ptr %18, align 4, !tbaa !33
  %20 = and i32 %19, -9
  store i32 %20, ptr %18, align 4, !tbaa !33
  %21 = getelementptr inbounds nuw i8, ptr %15, i64 136
  store i64 %2, ptr %21, align 8, !tbaa !40
  %22 = getelementptr inbounds nuw i8, ptr %15, i64 408
  store i64 %3, ptr %22, align 8, !tbaa !41
  store ptr %15, ptr %5, align 8, !tbaa !61
  %23 = getelementptr inbounds nuw i8, ptr %5, i64 8
  store ptr %1, ptr %23, align 8, !tbaa !63
  %24 = getelementptr inbounds nuw i8, ptr %7, i64 80
  %25 = load i32, ptr %24, align 4, !tbaa !51
  %26 = sdiv i32 %25, 2
  %27 = getelementptr inbounds nuw i8, ptr %7, i64 112
  %28 = load i32, ptr %27, align 8, !tbaa !54
  %. = tail call i32 @llvm.smin.i32(i32 %26, i32 %28)
  %29 = call i32 @ff_filter_execute(ptr noundef nonnull %0, ptr noundef nonnull @deinterlace_slice, ptr noundef nonnull %5, ptr noundef null, i32 noundef %.) #11
  %30 = getelementptr inbounds nuw i8, ptr %7, i64 8
  %31 = load i32, ptr %30, align 8, !tbaa !45
  %.not28 = icmp eq i32 %31, 0
  br i1 %.not28, label %36, label %32

32:                                               ; preds = %16
  %33 = getelementptr inbounds nuw i8, ptr %7, i64 92
  %34 = load i32, ptr %33, align 4, !tbaa !64
  %.not29 = icmp eq i32 %34, 0
  %35 = zext i1 %.not29 to i32
  store i32 %35, ptr %33, align 4, !tbaa !64
  br label %36

36:                                               ; preds = %32, %16
  %37 = call i32 @ff_filter_frame(ptr noundef nonnull %10, ptr noundef nonnull %15) #11
  br label %38

38:                                               ; preds = %4, %36
  %.0 = phi i32 [ %37, %36 ], [ -12, %4 ]
  call void @llvm.lifetime.end.p0(i64 16, ptr nonnull %5) #11
  ret i32 %.0
}